	.file	"vptr.cc"
	.section	.text._ZN1AC2Ev,"axG",@progbits,_ZN1AC5Ev,comdat
	.align 2
	.weak	_ZN1AC2Ev
	.type	_ZN1AC2Ev, @function
_ZN1AC2Ev:
.LFB1:
	.cfi_startproc
	pushq	%rbp
	.cfi_def_cfa_offset 16
	.cfi_offset 6, -16
	movq	%rsp, %rbp
	.cfi_def_cfa_register 6
	movq	%rdi, -8(%rbp)
	movq	-8(%rbp), %rax
	movq	$_ZTV1A+16, (%rax)
	movq	-8(%rbp), %rax
	movb	$97, 8(%rax)
	popq	%rbp
	.cfi_def_cfa 7, 8
	ret
	.cfi_endproc
.LFE1:
	.size	_ZN1AC2Ev, .-_ZN1AC2Ev
	.weak	_ZN1AC1Ev
	.set	_ZN1AC1Ev,_ZN1AC2Ev
	.section	.text._ZN1A5fffffEv,"axG",@progbits,_ZN1A5fffffEv,comdat
	.align 2
	.weak	_ZN1A5fffffEv
	.type	_ZN1A5fffffEv, @function
_ZN1A5fffffEv:
.LFB3:
	.cfi_startproc
	pushq	%rbp
	.cfi_def_cfa_offset 16
	.cfi_offset 6, -16
	movq	%rsp, %rbp
	.cfi_def_cfa_register 6
	movq	%rdi, -8(%rbp)
	popq	%rbp
	.cfi_def_cfa 7, 8
	ret
	.cfi_endproc
.LFE3:
	.size	_ZN1A5fffffEv, .-_ZN1A5fffffEv
	.text
	.globl	main
	.type	main, @function
main:
.LFB4:
	.cfi_startproc
	pushq	%rbp
	.cfi_def_cfa_offset 16
	.cfi_offset 6, -16
	movq	%rsp, %rbp
	.cfi_def_cfa_register 6
	subq	$16, %rsp
	leaq	-16(%rbp), %rax
	movq	%rax, %rdi
	call	_ZN1AC1Ev
	movl	$0, %eax
	leave
	.cfi_def_cfa 7, 8
	ret
	.cfi_endproc
.LFE4:
	.size	main, .-main
	.weak	_ZTV1A
	.section	.rodata._ZTV1A,"aG",@progbits,_ZTV1A,comdat
	.align 16
	.type	_ZTV1A, @object
	.size	_ZTV1A, 24
_ZTV1A:
	.quad	0
	.quad	_ZTI1A
	.quad	_ZN1A5fffffEv
	.weak	_ZTS1A
	.section	.rodata._ZTS1A,"aG",@progbits,_ZTS1A,comdat
	.type	_ZTS1A, @object
	.size	_ZTS1A, 3
_ZTS1A:
	.string	"1A"
	.weak	_ZTI1A
	.section	.rodata._ZTI1A,"aG",@progbits,_ZTI1A,comdat
	.align 16
	.type	_ZTI1A, @object
	.size	_ZTI1A, 16
_ZTI1A:
	.quad	_ZTVN10__cxxabiv117__class_type_infoE+16
	.quad	_ZTS1A
	.ident	"GCC: (GNU) 4.8.5 20150623 (Red Hat 4.8.5-16)"
	.section	.note.GNU-stack,"",@progbits
